(dp1
S'output'
p2
S"<type 'exceptions.TypeError'> Incorrect padding"
p3
sS'layer'
p4
S'C:\\Users\\cclau_000\\Desktop\\CMPS121_FinalProject\\Web2py Server\\applications\\welcome\\controllers/default.py'
p5
sS'code'
p6
S'# -*- coding: utf-8 -*-\n# this file is released under public domain and you can use without limitations\n\n#########################################################################\n## This is a sample controller\n## - index is the default action of any application\n## - user is required for authentication and authorization\n## - download is for downloading files uploaded in the db (does streaming)\n#########################################################################\nimport base64\n\nKEY = \'GAmaW6d90bvBKDOw60b68e9t10356Dqy\'\n\ndef index():\n   if auth.user_id == None:\n      redirect(URL(\'default\', \'user\', args=[\'login\']))\n   else:\n      rows = db().select(db.userData.ALL)\n      d = []\n      for r in rows:\n         d.append({\'user\': r.email})\n      addForm = SQLFORM(db.userData)\n      if addForm.process().accepted:\n         session.flash = T(\'Added new user\')\n         redirect(URL(\'default\', \'index\'))\n      return dict(userData=d, addForm=addForm)\n   """\n   example action using the internationalization operator T and flash\n   rendered by views/default/index.html or views/generic.html\n\n   if you need a simple wiki simply replace the two lines below with:\n   return auth.wiki()\n   """\n   return response.json({\'response\': \'ok\'})\n\n#this gets all messages for a particular computer\n#must be passed: computerName, key\ndef get_messages():\n   try:\n      if request.vars.computerName == None or request.vars.key == None or request.vars.key != KEY:\n         theDict = dict(messageInfo=[])\n         theDict.update({\'response\':\'error\'})\n         return response.json(theDict)  \n      comp = request.vars.computerName\n      rows = db(db.messageData.computerName == comp).select()\n      d = []\n      for r in rows:\n         d.append({\'computerName\': r.computerName,\n                           \'computerNumber\':r.computerNumber,\n                           \'messageData\':r.messageData,\n                           \'problem\': r.problem,\n                           \'timeCreated\': r.timeCreated})\n      theDict = dict(messageInfo=d)\n      theDict.update({\'response\':\'ok\'})\n      return response.json(theDict)\n   except:\n      theDict = dict(messageInfo=[])\n      theDict.update({\'response\':\'error\'})\n      return response.json(theDict)\n\n#this allows user to post a message to the database and updates the status for that particular computer\n#must be passed: computerName, computerNumber, messageData, problem, key\ndef post_message():\n   try:\n      if request.vars.computerName == None or request.vars.computerNumber == None or request.vars.messageData == None or request.vars.problem == None or request.vars.key == None or request.vars.key != KEY:\n         return response.json({\'response\':\'error\'})\n      db.messageData.insert(computerName = request.vars.computerName,\n               computerNumber = request.vars.computerNumber,\n               messageData = request.vars.messageData,\n               problem = request.vars.problem)\n      status = \'\'\n      if request.vars.problem == \'fixed\':\n         status = \'working\'\n      else:\n         status = \'broken\'\n      db.computerStatus.update_or_insert((db.computerStatus.computerName == request.vars.computerName),\n               computerName = request.vars.computerName,\n               currentStatus=status)\n      return response.json({\'response\': \'ok\'})\n   except:\n      return response.json({\'response\':\'error\'})\n\n#this gets the most recent status of a computer\n#must be passed: computerName, key      \ndef get_status():\n   try:\n      if request.vars.computerName == None or request.vars.key == None or request.vars.key != KEY:\n         theDict = dict(problemInfo={})\n         theDict.update({\'response\':\'error\'})\n         return response.json(theDict)\n      comp = request.vars.computerName\n      rows = db(db.computerStatus.computerName == comp).select()\n      d = {}\n      for r in rows:\n         d = {\'computerName\': r.computerName,\n                           \'currentStatus\': r.currentStatus}\n      theDict = dict(problemInfo=d)\n      theDict.update({\'response\': \'ok\'})\n      return response.json(theDict)\n   except:\n      theDict = dict(problemInfo={})\n      theDict.update({\'response\':\'error\'})\n      return response.json(theDict)\n      \n#this is used to add a user to the database, assuming they don\'t already exist in it\n#must be passed: email, password, key      \ndef add_user():\n   #try:\n      if request.vars.email == None or request.vars.password == None or request.vars.key == None or request.vars.key != KEY:\n         return response.json({\'response\':\'error\'})\n      rows = db(db.userData.email == request.vars.email).select()\n      if len(rows) == 0:\n         return response.json({\'response\': \'user not authorized\'})\n      for r in rows:\n         r.password = base64.b64encode(request.vars.password)\n         return response.json({base64.b64decode(request.vars.password): request.vars.password})\n      return response.json({\'response\':\'ok\'})\n   #except:\n      return response.json({\'response\':\'error\'})\n\n#this is used to check if a user exists in the system\n#must be passed: email, password, key     \ndef get_user():\n   try:\n      if request.vars.email == None or request.vars.password == None or request.vars.key == None or request.vars.key != KEY:\n         return response.json({\'response\':\'error\'})\n      rows = db(db.userData.email == request.vars.email).select()\n      login = {}\n      if len(rows) == 0:\n         login.update({\'login\':\'failed\'})\n      for r in rows:\n         if r.password != base64.b64encode(request.vars.password):\n            login.update({\'login\':\'failed\'})\n         else:\n            login.update({\'login\': \'success\'})\n      theDict = dict(userInfo=login)\n      theDict.update({\'response\':\'ok\'})\n      return response.json(theDict)\n   except:\n      theDict = dict(userInfo={})\n      theDict.update({\'response\':\'error\'})\n      return response.json(theDict)\n      \n#this is used to get the schedule for a particular computer\n#NOTE: THIS DATA WILL NEED TO BE PARSED IN-APP FOR ENTRIES WITHIN A CERTAIN DATE (THIS WILL RETURN EVERYTHING)\n#must be passed: computerName, key\ndef get_schedule():\n   try:\n      if request.vars.computerName == None or request.vars.key == None or request.vars.key != KEY:\n         theDict = dict(scheduleInfo=[])\n         theDict.update({\'response\':\'error\'})\n         return response.json(theDict)  \n      rows = db(db.schedule.computerName == request.vars.computerName).select()\n      d = []\n      for r in rows:\n         d.append({\'computerName\': r.computerName,\n                        \'beginTime\': r.beginTime,\n                        \'endTime\': r.endTime,\n                        \'dateReserved\': r.dateReserved,\n                        \'email\': r.email})\n      theDict = dict(scheduleInfo=d)\n      theDict.update({\'response\':\'ok\'})\n      return response.json(theDict)\n   except:\n      theDict = dict(scheduleInfo=[])\n      theDict.update({\'response\':\'error\'})\n      return response.json(theDict)\n\n#this allows a user to schedule a computer on a certain date for a particular block of time\n#must be passed: computerName, beginTime, endTime, dateReserved, email, key\ndef schedule_computer():\n   try:\n      if request.vars.computerName == None or request.vars.beginTime == None or request.vars.endTime == None or request.vars.dateReserved == None or request.vars.email == None or request.vars.key == None or request.vars.key != KEY:\n         return response.json({\'response\': \'error\'})\n      rows = db(db.schedule.computerName == request.vars.computerName).select()\n      for r in rows:\n         if (r.beginTime == request.vars.beginTime) and (r.endTime == request.vars.endTime) and (r.dateReserved == request.vars.dateReserved):\n            return response.json({\'response\': \'already reserved\'})\n      db.schedule.insert(computerName = request.vars.computerName,\n               beginTime = request.vars.beginTime,\n               endTime = request.vars.endTime,\n               dateReserved = request.vars.dateReserved,\n               email = request.vars.email)\n      return response.json({\'response\':\'ok\'})\n   except:\n      return response.json({\'response\':\'error\'})\n      \ndef cancel_reservation():\n   try:\n      if request.vars.computerName == None or request.vars.beginTime == None or request.vars.endTime == None or request.vars.dateReserved == None or request.vars.email == None or request.vars.key == None or request.vars.key != KEY:\n            return response.json({\'response\': \'error\'})\n      db(db.schedule.computerName == request.vars.computerName and db.schedule.beginTime == request.vars.beginTime and db.schedule.endTime == request.vars.endTime and db.schedule.dateReserved == request.vars.dateReserved and db.schedule.email == request.vars.email).delete()\n      return response.json({\'response\': \'ok\'})\n   except:\n      return response.json({\'response\': \'error\'})\n      \ndef delete_user():\n   db(db.userData.email == request.args(0)).delete()\n   redirect(URL(\'default\', \'index\', args=[]))\n   return\n      \n#----------------------------------FOR DEVELOPMENT PURPOSES-----------------------------------------------\ndef wipe_server():\n   try:\n      if request.vars.server == \'messageData\':\n         db(db.messageData).delete()\n      if request.vars.server == \'statusData\':\n         db(db.computerStatus).delete()\n      if request.vars.server == \'userData\':\n         db(db.userData).delete()\n      if request.vars.server == \'scheduleData\':\n         db(db.schedule).delete()\n      if request.vars.server == \'all\':\n         db(db.messageData).delete()\n         db(db.computerStatus).delete()\n         db(db.userData).delete()\n         db(db.schedule).delete()\n      return response.json({\'response\': \'ok\'})\n   except:\n      return response.json({\'response\': \'error\'})\n\ndef initialize_default_data():\n   try:\n      db.userData.insert(email = \'jbernay@ucsc.edu\', password = base64.b64encode(\'temp\'))\n      db.userData.insert(email = \'aparvis@ucsc.edu\', password = base64.b64encode(\'temp\'))\n      db.userData.insert(email = \'srsmall@ucsc.edu\', password = base64.b64encode(\'temp\'))\n      db.userData.insert(email = \'lccunnin@ucsc.edu\', password = base64.b64encode(\'temp\'))      \n      db.messageData.insert(computerName = \'SNOW\', computerNumber = \'364\', messageData = \'Initialization of server data.\', problem = \'fixed\')\n      db.messageData.insert(computerName = \'LIGHTNING\', computerNumber = \'364\', messageData = \'Initialization of server data.\', problem = \'fixed\')\n      db.messageData.insert(computerName = \'SEPHIROTH\', computerNumber = \'368\', messageData = \'Initialization of server data.\', problem = \'fixed\')\n      db.messageData.insert(computerName = \'ZELDA\', computerNumber = \'368\', messageData = \'Initialization of server data.\', problem = \'fixed\')\n      db.messageData.insert(computerName = \'SEAMUS\', computerNumber = \'368\', messageData = \'Initialization of server data.\', problem = \'fixed\')\n      db.messageData.insert(computerName = \'LINK\', computerNumber = \'368\', messageData = \'Initialization of server data.\', problem = \'fixed\')\n      db.messageData.insert(computerName = \'CMDRKEEN\', computerNumber = \'368\', messageData = \'Initialization of server data.\', problem = \'fixed\')\n      db.messageData.insert(computerName = \'VICVIPER\', computerNumber = \'368\', messageData = \'Initialization of server data.\', problem = \'fixed\')\n      db.messageData.insert(computerName = \'MARIO\', computerNumber = \'368\', messageData = \'Initialization of server data.\', problem = \'fixed\')\n      db.messageData.insert(computerName = \'BRAID\', computerNumber = \'368\', messageData = \'Initialization of server data.\', problem = \'fixed\')\n      db.messageData.insert(computerName = \'DONKEYKONG\', computerNumber = \'368\', messageData = \'Initialization of server data.\', problem = \'fixed\')\n      db.messageData.insert(computerName = \'MASSEFFECT\', computerNumber = \'366\', messageData = \'Initialization of server data.\', problem = \'fixed\')\n      db.messageData.insert(computerName = \'HALFLIFE\', computerNumber = \'366\', messageData = \'Initialization of server data.\', problem = \'fixed\')\n      db.messageData.insert(computerName = \'CALLOFDUTY\', computerNumber = \'366\', messageData = \'Initialization of server data.\', problem = \'fixed\')\n      db.messageData.insert(computerName = \'LEFT4DEAD\', computerNumber = \'366\', messageData = \'Initialization of server data.\', problem = \'fixed\')      \n      db.computerStatus.insert(computerName = \'SNOW\', currentStatus = \'working\')\n      db.computerStatus.insert(computerName = \'LIGHTNING\', currentStatus = \'working\')\n      db.computerStatus.insert(computerName = \'SEPHIROTH\', currentStatus = \'working\')\n      db.computerStatus.insert(computerName = \'ZELDA\', currentStatus = \'working\')\n      db.computerStatus.insert(computerName = \'SEAMUS\', currentStatus = \'working\')\n      db.computerStatus.insert(computerName = \'LINK\', currentStatus = \'working\')\n      db.computerStatus.insert(computerName = \'CMDRKEEN\', currentStatus = \'working\')\n      db.computerStatus.insert(computerName = \'VICVIPER\', currentStatus = \'working\')\n      db.computerStatus.insert(computerName = \'MARIO\', currentStatus = \'working\')\n      db.computerStatus.insert(computerName = \'BRAID\', currentStatus = \'working\')\n      db.computerStatus.insert(computerName = \'DONKEYKONG\', currentStatus = \'working\')\n      db.computerStatus.insert(computerName = \'MASSEFFECT\', currentStatus = \'working\')\n      db.computerStatus.insert(computerName = \'HALFLIFE\', currentStatus = \'working\')\n      db.computerStatus.insert(computerName = \'CALLOFDUTY\', currentStatus = \'working\')\n      db.computerStatus.insert(computerName = \'LEFT4DEAD\', currentStatus = \'working\')\n      db.auth_user.update_or_insert(email = \'admin@ucsc.edu\', password = \'pbkdf2(1000,20,sha512)$a3c3b38df3459c84$218a620950f4b33654a59205a4caee0f10112af5\')\n      return response.json({\'response\':\'ok\'})\n   except:\n      return response.json({\'response\':\'error\'})\n#-------------------------------------------------------------------------------------------------\n\ndef user():\n    """\n    exposes:\n    http://..../[app]/default/user/login\n    http://..../[app]/default/user/logout\n    http://..../[app]/default/user/register\n    http://..../[app]/default/user/profile\n    http://..../[app]/default/user/retrieve_password\n    http://..../[app]/default/user/change_password\n    http://..../[app]/default/user/manage_users (requires membership in\n    http://..../[app]/default/user/bulk_register\n    use @auth.requires_login()\n        @auth.requires_membership(\'group name\')\n        @auth.requires_permission(\'read\',\'table name\',record_id)\n    to decorate functions that need access control\n    """\n    if request.args(0) != \'login\':\n      redirect(URL(\'default\', \'user\', args=[\'login\']))\n    if auth.user_id != None:\n      redirect(URL(\'default\', \'index\', args=[]))\n    return dict(form=auth())\n\n\n@cache.action()\ndef download():\n    """\n    allows downloading of uploaded files\n    http://..../[app]/default/download/[filename]\n    """\n    return response.download(request, db)\n\n\ndef call():\n    """\n    exposes services. for example:\n    http://..../[app]/default/call/jsonrpc\n    decorate with @services.jsonrpc the functions to expose\n    supports xml, json, xmlrpc, jsonrpc, amfrpc, rss, csv\n    """\n    return service()\n\n\n\nresponse._vars=response._caller(add_user)\n'
p7
sS'snapshot'
p8
(dp9
S'exception'
p10
(dp11
S'__hash__'
p12
S"<method-wrapper '__hash__' of exceptions.TypeError object>"
p13
sS'__setattr__'
p14
S"<method-wrapper '__setattr__' of exceptions.TypeError object>"
p15
sS'__reduce_ex__'
p16
S'<built-in method __reduce_ex__ of exceptions.TypeError object>'
p17
sS'__getslice__'
p18
S"<method-wrapper '__getslice__' of exceptions.TypeError object>"
p19
sS'__getitem__'
p20
S"<method-wrapper '__getitem__' of exceptions.TypeError object>"
p21
sS'__setstate__'
p22
S'<built-in method __setstate__ of exceptions.TypeError object>'
p23
sS'__reduce__'
p24
S'<built-in method __reduce__ of exceptions.TypeError object>'
p25
sS'__str__'
p26
S"<method-wrapper '__str__' of exceptions.TypeError object>"
p27
sS'__format__'
p28
S'<built-in method __format__ of exceptions.TypeError object>'
p29
sS'__getattribute__'
p30
S"<method-wrapper '__getattribute__' of exceptions.TypeError object>"
p31
sS'__class__'
p32
S"<type 'exceptions.TypeError'>"
p33
sS'__unicode__'
p34
S'<built-in method __unicode__ of exceptions.TypeError object>'
p35
sS'__delattr__'
p36
S"<method-wrapper '__delattr__' of exceptions.TypeError object>"
p37
sS'__subclasshook__'
p38
S'<built-in method __subclasshook__ of type object>'
p39
sS'__repr__'
p40
S"<method-wrapper '__repr__' of exceptions.TypeError object>"
p41
sS'args'
p42
S"(Error('Incorrect padding',),)"
p43
sS'__dict__'
p44
S'{}'
p45
sS'__sizeof__'
p46
S'<built-in method __sizeof__ of exceptions.TypeError object>'
p47
sS'__doc__'
p48
S"'Inappropriate argument type.'"
p49
sS'__init__'
p50
S"<method-wrapper '__init__' of exceptions.TypeError object>"
p51
sS'__new__'
p52
S'<built-in method __new__ of type object>'
p53
ssS'evalue'
p54
S'Incorrect padding'
p55
sS'request'
p56
cgluon.html
XML_unpickle
p57
(S's\x1b^\x00\x00<div><table><tr><td style="font-weight:bold;vertical-align:top;">ajax</td><td style="vertical-align:top;">:</td><td><div>False</div></td></tr><tr><td style="font-weight:bold;vertical-align:top;">application</td><td style="vertical-align:top;">:</td><td><div>welcome</div></td></tr><tr><td style="font-weight:bold;vertical-align:top;">args</td><td style="vertical-align:top;">:</td><td><div><table></table></div></td></tr><tr><td style="font-weight:bold;vertical-align:top;">cid</td><td style="vertical-align:top;">:</td><td><div>None</div></td></tr><tr><td style="font-weight:bold;vertical-align:top;">client</td><td style="vertical-align:top;">:</td><td><div>127.0.0.1</div></td></tr><tr><td style="font-weight:bold;vertical-align:top;">controller</td><td style="vertical-align:top;">:</td><td><div>default</div></td></tr><tr><td style="font-weight:bold;vertical-align:top;">cookies</td><td style="vertical-align:top;">:</td><td><div><table><tr><td style="font-weight:bold;vertical-align:top;">session_id_admin</td><td style="vertical-align:top;">:</td><td><div>127.0.0.1-b0bff416-e11b-44bf-857a-6e1a05c3f4ad<table><tr><td style="font-weight:bold;vertical-align:top;">comment</td><td style="vertical-align:top;">:</td><td><div></div></td></tr><tr><td style="font-weight:bold;vertical-align:top;">domain</td><td style="vertical-align:top;">:</td><td><div></div></td></tr><tr><td style="font-weight:bold;vertical-align:top;">expires</td><td style="vertical-align:top;">:</td><td><div></div></td></tr><tr><td style="font-weight:bold;vertical-align:top;">httponly</td><td style="vertical-align:top;">:</td><td><div></div></td></tr><tr><td style="font-weight:bold;vertical-align:top;">max-age</td><td style="vertical-align:top;">:</td><td><div></div></td></tr><tr><td style="font-weight:bold;vertical-align:top;">path</td><td style="vertical-align:top;">:</td><td><div></div></td></tr><tr><td style="font-weight:bold;vertical-align:top;">secure</td><td style="vertical-align:top;">:</td><td><div></div></td></tr><tr><td style="font-weight:bold;vertical-align:top;">version</td><td style="vertical-align:top;">:</td><td><div></div></td></tr></table></div></td></tr><tr><td style="font-weight:bold;vertical-align:top;">session_id_welcome</td><td style="vertical-align:top;">:</td><td><div>127.0.0.1-440f3e9b-2c2a-409b-b814-4f671a85f8d1<table><tr><td style="font-weight:bold;vertical-align:top;">comment</td><td style="vertical-align:top;">:</td><td><div></div></td></tr><tr><td style="font-weight:bold;vertical-align:top;">domain</td><td style="vertical-align:top;">:</td><td><div></div></td></tr><tr><td style="font-weight:bold;vertical-align:top;">expires</td><td style="vertical-align:top;">:</td><td><div></div></td></tr><tr><td style="font-weight:bold;vertical-align:top;">httponly</td><td style="vertical-align:top;">:</td><td><div></div></td></tr><tr><td style="font-weight:bold;vertical-align:top;">max-age</td><td style="vertical-align:top;">:</td><td><div></div></td></tr><tr><td style="font-weight:bold;vertical-align:top;">path</td><td style="vertical-align:top;">:</td><td><div></div></td></tr><tr><td style="font-weight:bold;vertical-align:top;">secure</td><td style="vertical-align:top;">:</td><td><div></div></td></tr><tr><td style="font-weight:bold;vertical-align:top;">version</td><td style="vertical-align:top;">:</td><td><div></div></td></tr></table></div></td></tr></table></div></td></tr><tr><td style="font-weight:bold;vertical-align:top;">env</td><td style="vertical-align:top;">:</td><td><div><table><tr><td style="font-weight:bold;vertical-align:top;">HTTP_ACCEPT</td><td style="vertical-align:top;">:</td><td><div>text/html,application/xhtml+xml,application/xml;q=0.9,*/*;q=0.8</div></td></tr><tr><td style="font-weight:bold;vertical-align:top;">HTTP_ACCEPT_ENCODING</td><td style="vertical-align:top;">:</td><td><div>gzip, deflate</div></td></tr><tr><td style="font-weight:bold;vertical-align:top;">HTTP_ACCEPT_LANGUAGE</td><td style="vertical-align:top;">:</td><td><div>en-US,en;q=0.5</div></td></tr><tr><td style="font-weight:bold;vertical-align:top;">HTTP_CACHE_CONTROL</td><td style="vertical-align:top;">:</td><td><div>max-age=0</div></td></tr><tr><td style="font-weight:bold;vertical-align:top;">HTTP_CONNECTION</td><td style="vertical-align:top;">:</td><td><div>keep-alive</div></td></tr><tr><td style="font-weight:bold;vertical-align:top;">HTTP_COOKIE</td><td style="vertical-align:top;">:</td><td><div>session_id_welcome=127.0.0.1-440f3e9b-2c2a-409b-b814-4f671a85f8d1; session_id_admin=127.0.0.1-b0bff416-e11b-44bf-857a-6e1a05c3f4ad</div></td></tr><tr><td style="font-weight:bold;vertical-align:top;">HTTP_HOST</td><td style="vertical-align:top;">:</td><td><div>127.0.0.1:8000</div></td></tr><tr><td style="font-weight:bold;vertical-align:top;">HTTP_USER_AGENT</td><td style="vertical-align:top;">:</td><td><div>Mozilla/5.0 (Windows NT 10.0; WOW64; rv:44.0) Gecko/20100101 Firefox/44.0</div></td></tr><tr><td style="font-weight:bold;vertical-align:top;">PATH_INFO</td><td style="vertical-align:top;">:</td><td><div>/welcome/default/add_user</div></td></tr><tr><td style="font-weight:bold;vertical-align:top;">QUERY_STRING</td><td style="vertical-align:top;">:</td><td><div>email=lccunnin@ucsc.edu&amp;password=newPassword&amp;key=GAmaW6d90bvBKDOw60b68e9t10356Dqy</div></td></tr><tr><td style="font-weight:bold;vertical-align:top;">REMOTE_ADDR</td><td style="vertical-align:top;">:</td><td><div>127.0.0.1</div></td></tr><tr><td style="font-weight:bold;vertical-align:top;">REMOTE_PORT</td><td style="vertical-align:top;">:</td><td><div>56357</div></td></tr><tr><td style="font-weight:bold;vertical-align:top;">REQUEST_METHOD</td><td style="vertical-align:top;">:</td><td><div>GET</div></td></tr><tr><td style="font-weight:bold;vertical-align:top;">SCRIPT_NAME</td><td style="vertical-align:top;">:</td><td><div></div></td></tr><tr><td style="font-weight:bold;vertical-align:top;">SERVER_NAME</td><td style="vertical-align:top;">:</td><td><div>LaurensComputer</div></td></tr><tr><td style="font-weight:bold;vertical-align:top;">SERVER_PORT</td><td style="vertical-align:top;">:</td><td><div>8000</div></td></tr><tr><td style="font-weight:bold;vertical-align:top;">SERVER_PROTOCOL</td><td style="vertical-align:top;">:</td><td><div>HTTP/1.1</div></td></tr><tr><td style="font-weight:bold;vertical-align:top;">SERVER_SOFTWARE</td><td style="vertical-align:top;">:</td><td><div>Rocket 1.2.6</div></td></tr><tr><td style="font-weight:bold;vertical-align:top;">app_folders</td><td style="vertical-align:top;">:</td><td><div>set([&#x27;C:\\\\Users\\\\cclau_000\\\\Desktop\\\\CMPS121_FinalProject\\\\Web2py Server\\\\applications\\\\admin\\\\&#x27;, &#x27;C:\\\\Users\\\\cclau_000\\\\Desktop\\\\CMPS121_FinalProject\\\\Web2py Server\\\\applications\\\\welcome\\\\&#x27;])</div></td></tr><tr><td style="font-weight:bold;vertical-align:top;">applications_parent</td><td style="vertical-align:top;">:</td><td><div>C:\\Users\\cclau_000\\Desktop\\CMPS121_FinalProject\\Web2py Server</div></td></tr><tr><td style="font-weight:bold;vertical-align:top;">cmd_args</td><td style="vertical-align:top;">:</td><td><div><table></table></div></td></tr><tr><td style="font-weight:bold;vertical-align:top;">cmd_options</td><td style="vertical-align:top;">:</td><td><div>&lt;Values at 0x37f7eb8: {&#x27;verbose&#x27;: False, &#x27;ip&#x27;: &#x27;127.0.0.1&#x27;, &#x27;debuglevel&#x27;: 30, &#x27;with_scheduler&#x27;: False, &#x27;ips&#x27;: [&#x27;fe80::9128:b5bc:8df0:4f04%3&#x27;, &#x27;2001:0:9d38:6abd:33:12fb:5616:eaac&#x27;, &#x27;fe80::200:5efe:169.233.21.83%4&#x27;, &#x27;fe80::33:12fb:5616:eaac%2&#x27;, &#x27;fe80::d9a6:51f4:54a2:3e63%11&#x27;, &#x27;2620:9b::1992:fbb0&#x27;, &#x27;25.146.251.176&#x27;, &#x27;169.233.21.83&#x27;, &#x27;fe80::200:5efe:25.146.251.176%7&#x27;], &#x27;shutdown_timeout&#x27;: 5, &#x27;taskbar&#x27;: False, &#x27;with_coverage&#x27;: False, &#x27;scheduler_groups&#x27;: None, &#x27;port&#x27;: 8000, &#x27;maxthreads&#x27;: None, &#x27;softcron&#x27;: False, &#x27;server_name&#x27;: &#x27;LaurensComputer&#x27;, &#x27;bpython&#x27;: False, &#x27;nogui&#x27;: False, &#x27;pid_filename&#x27;: &#x27;httpserver.pid&#x27;, &#x27;print_errors&#x27;: False, &#x27;extcron&#x27;: False, &#x27;runcron&#x27;: False, &#x27;run_system_tests&#x27;: False, &#x27;test&#x27;: None, &#x27;folder&#x27;: &#x27;C:\\\\Users\\\\cclau_000\\\\Desktop\\\\CMPS121_FinalProject\\\\Web2py Server&#x27;, &#x27;config&#x27;: &#x27;&#x27;, &#x27;minthreads&#x27;: None, &#x27;shell&#x27;: None, &#x27;run&#x27;: &#x27;&#x27;, &#x27;log_filename&#x27;: &#x27;httpserver.log&#x27;, &#x27;profiler_dir&#x27;: None, &#x27;args&#x27;: [&#x27;&#x27;], &#x27;socket_timeout&#x27;: 5, &#x27;ssl_ca_certificate&#x27;: None, &#x27;scheduler&#x27;: None, &#x27;interfaces&#x27;: None, &#x27;ssl_private_key&#x27;: &#x27;&#x27;, &#x27;gae&#x27;: None, &#x27;password&#x27;: &#x27;&lt;ask&gt;&#x27;, &#x27;request_queue_size&#x27;: 5, &#x27;ssl_certificate&#x27;: &#x27;&#x27;, &#x27;cronjob&#x27;: False, &#x27;numthreads&#x27;: None, &#x27;quiet&#x27;: False, &#x27;import_models&#x27;: False, &#x27;timeout&#x27;: 10, &#x27;plain&#x27;: False, &#x27;nobanner&#x27;: False}&gt;</div></td></tr><tr><td style="font-weight:bold;vertical-align:top;">db_sessions</td><td style="vertical-align:top;">:</td><td><div>set([])</div></td></tr><tr><td style="font-weight:bold;vertical-align:top;">debugging</td><td style="vertical-align:top;">:</td><td><div>False</div></td></tr><tr><td style="font-weight:bold;vertical-align:top;">gluon_parent</td><td style="vertical-align:top;">:</td><td><div>C:\\Users\\cclau_000\\Desktop\\CMPS121_FinalProject\\Web2py Server</div></td></tr><tr><td style="font-weight:bold;vertical-align:top;">http_accept</td><td style="vertical-align:top;">:</td><td><div>text/html,application/xhtml+xml,application/xml;q=0.9,*/*;q=0.8</div></td></tr><tr><td style="font-weight:bold;vertical-align:top;">http_accept_encoding</td><td style="vertical-align:top;">:</td><td><div>gzip, deflate</div></td></tr><tr><td style="font-weight:bold;vertical-align:top;">http_accept_language</td><td style="vertical-align:top;">:</td><td><div>en-US,en;q=0.5</div></td></tr><tr><td style="font-weight:bold;vertical-align:top;">http_cache_control</td><td style="vertical-align:top;">:</td><td><div>max-age=0</div></td></tr><tr><td style="font-weight:bold;vertical-align:top;">http_connection</td><td style="vertical-align:top;">:</td><td><div>keep-alive</div></td></tr><tr><td style="font-weight:bold;vertical-align:top;">http_cookie</td><td style="vertical-align:top;">:</td><td><div>session_id_welcome=127.0.0.1-440f3e9b-2c2a-409b-b814-4f671a85f8d1; session_id_admin=127.0.0.1-b0bff416-e11b-44bf-857a-6e1a05c3f4ad</div></td></tr><tr><td style="font-weight:bold;vertical-align:top;">http_host</td><td style="vertical-align:top;">:</td><td><div>127.0.0.1:8000</div></td></tr><tr><td style="font-weight:bold;vertical-align:top;">http_user_agent</td><td style="vertical-align:top;">:</td><td><div>Mozilla/5.0 (Windows NT 10.0; WOW64; rv:44.0) Gecko/20100101 Firefox/44.0</div></td></tr><tr><td style="font-weight:bold;vertical-align:top;">is_jython</td><td style="vertical-align:top;">:</td><td><div>False</div></td></tr><tr><td style="font-weight:bold;vertical-align:top;">is_pypy</td><td style="vertical-align:top;">:</td><td><div>False</div></td></tr><tr><td style="font-weight:bold;vertical-align:top;">is_source</td><td style="vertical-align:top;">:</td><td><div>True</div></td></tr><tr><td style="font-weight:bold;vertical-align:top;">local_hosts</td><td style="vertical-align:top;">:</td><td><div><table><tr><td><div>fe80::9128:b5bc:8df0:4f04%3</div></td></tr><tr><td><div>2001:0:9d38:6abd:33:12fb:5616:eaac</div></td></tr><tr><td><div>::ffff:127.0.0.1</div></td></tr><tr><td><div>::1</div></td></tr><tr><td><div>fe80::200:5efe:169.233.21.83%4</div></td></tr><tr><td><div>fe80::33:12fb:5616:eaac%2</div></td></tr><tr><td><div>fe80::d9a6:51f4:54a2:3e63%11</div></td></tr><tr><td><div>2620:9b::1992:fbb0</div></td></tr><tr><td><div>25.146.251.176</div></td></tr><tr><td><div>LaurensComputer</div></td></tr><tr><td><div>169.233.21.83</div></td></tr><tr><td><div>127.0.0.1</div></td></tr><tr><td><div>fe80::200:5efe:25.146.251.176%7</div></td></tr></table></div></td></tr><tr><td style="font-weight:bold;vertical-align:top;">path_info</td><td style="vertical-align:top;">:</td><td><div>/welcome/default/add_user</div></td></tr><tr><td style="font-weight:bold;vertical-align:top;">query_string</td><td style="vertical-align:top;">:</td><td><div>email=lccunnin@ucsc.edu&amp;password=newPassword&amp;key=GAmaW6d90bvBKDOw60b68e9t10356Dqy</div></td></tr><tr><td style="font-weight:bold;vertical-align:top;">remote_addr</td><td style="vertical-align:top;">:</td><td><div>127.0.0.1</div></td></tr><tr><td style="font-weight:bold;vertical-align:top;">remote_port</td><td style="vertical-align:top;">:</td><td><div>56357</div></td></tr><tr><td style="font-weight:bold;vertical-align:top;">request_method</td><td style="vertical-align:top;">:</td><td><div>GET</div></td></tr><tr><td style="font-weight:bold;vertical-align:top;">request_uri</td><td style="vertical-align:top;">:</td><td><div>/welcome/default/add_user?email=lccunnin@ucsc.edu&amp;password=newPassword&amp;key=GAmaW6d90bvBKDOw60b68e9t10356Dqy</div></td></tr><tr><td style="font-weight:bold;vertical-align:top;">script_name</td><td style="vertical-align:top;">:</td><td><div></div></td></tr><tr><td style="font-weight:bold;vertical-align:top;">server_name</td><td style="vertical-align:top;">:</td><td><div>LaurensComputer</div></td></tr><tr><td style="font-weight:bold;vertical-align:top;">server_port</td><td style="vertical-align:top;">:</td><td><div>8000</div></td></tr><tr><td style="font-weight:bold;vertical-align:top;">server_protocol</td><td style="vertical-align:top;">:</td><td><div>HTTP/1.1</div></td></tr><tr><td style="font-weight:bold;vertical-align:top;">server_software</td><td style="vertical-align:top;">:</td><td><div>Rocket 1.2.6</div></td></tr><tr><td style="font-weight:bold;vertical-align:top;">web2py_path</td><td style="vertical-align:top;">:</td><td><div>C:\\Users\\cclau_000\\Desktop\\CMPS121_FinalProject\\Web2py Server</div></td></tr><tr><td style="font-weight:bold;vertical-align:top;">web2py_version</td><td style="vertical-align:top;">:</td><td><div>2.10.3-stable+timestamp.2015.04.02.16.28.49</div></td></tr><tr><td style="font-weight:bold;vertical-align:top;">wsgi.errors</td><td style="vertical-align:top;">:</td><td><div>&lt;open file &#x27;&lt;stderr&gt;&#x27;, mode &#x27;w&#x27; at 0x026CD0D0&gt;</div></td></tr><tr><td style="font-weight:bold;vertical-align:top;">wsgi.file_wrapper</td><td style="vertical-align:top;">:</td><td><div>&lt;class wsgiref.util.FileWrapper at 0x037B6458&gt;</div></td></tr><tr><td style="font-weight:bold;vertical-align:top;">wsgi.input</td><td style="vertical-align:top;">:</td><td><div>&lt;socket._fileobject object at 0x08DDBE70&gt;</div></td></tr><tr><td style="font-weight:bold;vertical-align:top;">wsgi.multiprocess</td><td style="vertical-align:top;">:</td><td><div>False</div></td></tr><tr><td style="font-weight:bold;vertical-align:top;">wsgi.multithread</td><td style="vertical-align:top;">:</td><td><div>True</div></td></tr><tr><td style="font-weight:bold;vertical-align:top;">wsgi.run_once</td><td style="vertical-align:top;">:</td><td><div>False</div></td></tr><tr><td style="font-weight:bold;vertical-align:top;">wsgi.url_scheme</td><td style="vertical-align:top;">:</td><td><div>http</div></td></tr><tr><td style="font-weight:bold;vertical-align:top;">wsgi.version</td><td style="vertical-align:top;">:</td><td><div><table><tr><td><div>1</div></td></tr><tr><td><div>0</div></td></tr></table></div></td></tr><tr><td style="font-weight:bold;vertical-align:top;">wsgi_errors</td><td style="vertical-align:top;">:</td><td><div>&lt;open file &#x27;&lt;stderr&gt;&#x27;, mode &#x27;w&#x27; at 0x026CD0D0&gt;</div></td></tr><tr><td style="font-weight:bold;vertical-align:top;">wsgi_file_wrapper</td><td style="vertical-align:top;">:</td><td><div>&lt;class wsgiref.util.FileWrapper at 0x037B6458&gt;</div></td></tr><tr><td style="font-weight:bold;vertical-align:top;">wsgi_input</td><td style="vertical-align:top;">:</td><td><div>&lt;socket._fileobject object at 0x08DDBE70&gt;</div></td></tr><tr><td style="font-weight:bold;vertical-align:top;">wsgi_multiprocess</td><td style="vertical-align:top;">:</td><td><div>False</div></td></tr><tr><td style="font-weight:bold;vertical-align:top;">wsgi_multithread</td><td style="vertical-align:top;">:</td><td><div>True</div></td></tr><tr><td style="font-weight:bold;vertical-align:top;">wsgi_run_once</td><td style="vertical-align:top;">:</td><td><div>False</div></td></tr><tr><td style="font-weight:bold;vertical-align:top;">wsgi_url_scheme</td><td style="vertical-align:top;">:</td><td><div>http</div></td></tr><tr><td style="font-weight:bold;vertical-align:top;">wsgi_version</td><td style="vertical-align:top;">:</td><td><div><table><tr><td><div>1</div></td></tr><tr><td><div>0</div></td></tr></table></div></td></tr></table></div></td></tr><tr><td style="font-weight:bold;vertical-align:top;">extension</td><td style="vertical-align:top;">:</td><td><div>html</div></td></tr><tr><td style="font-weight:bold;vertical-align:top;">folder</td><td style="vertical-align:top;">:</td><td><div>C:\\Users\\cclau_000\\Desktop\\CMPS121_FinalProject\\Web2py Server\\applications\\welcome\\</div></td></tr><tr><td style="font-weight:bold;vertical-align:top;">function</td><td style="vertical-align:top;">:</td><td><div>add_user</div></td></tr><tr><td style="font-weight:bold;vertical-align:top;">global_settings</td><td style="vertical-align:top;">:</td><td><div><table><tr><td style="font-weight:bold;vertical-align:top;">app_folders</td><td style="vertical-align:top;">:</td><td><div>set([&#x27;C:\\\\Users\\\\cclau_000\\\\Desktop\\\\CMPS121_FinalProject\\\\Web2py Server\\\\applications\\\\admin\\\\&#x27;, &#x27;C:\\\\Users\\\\cclau_000\\\\Desktop\\\\CMPS121_FinalProject\\\\Web2py Server\\\\applications\\\\welcome\\\\&#x27;])</div></td></tr><tr><td style="font-weight:bold;vertical-align:top;">applications_parent</td><td style="vertical-align:top;">:</td><td><div>C:\\Users\\cclau_000\\Desktop\\CMPS121_FinalProject\\Web2py Server</div></td></tr><tr><td style="font-weight:bold;vertical-align:top;">cmd_args</td><td style="vertical-align:top;">:</td><td><div><table></table></div></td></tr><tr><td style="font-weight:bold;vertical-align:top;">cmd_options</td><td style="vertical-align:top;">:</td><td><div>&lt;Values at 0x37f7eb8: {&#x27;verbose&#x27;: False, &#x27;ip&#x27;: &#x27;127.0.0.1&#x27;, &#x27;debuglevel&#x27;: 30, &#x27;with_scheduler&#x27;: False, &#x27;ips&#x27;: [&#x27;fe80::9128:b5bc:8df0:4f04%3&#x27;, &#x27;2001:0:9d38:6abd:33:12fb:5616:eaac&#x27;, &#x27;fe80::200:5efe:169.233.21.83%4&#x27;, &#x27;fe80::33:12fb:5616:eaac%2&#x27;, &#x27;fe80::d9a6:51f4:54a2:3e63%11&#x27;, &#x27;2620:9b::1992:fbb0&#x27;, &#x27;25.146.251.176&#x27;, &#x27;169.233.21.83&#x27;, &#x27;fe80::200:5efe:25.146.251.176%7&#x27;], &#x27;shutdown_timeout&#x27;: 5, &#x27;taskbar&#x27;: False, &#x27;with_coverage&#x27;: False, &#x27;scheduler_groups&#x27;: None, &#x27;port&#x27;: 8000, &#x27;maxthreads&#x27;: None, &#x27;softcron&#x27;: False, &#x27;server_name&#x27;: &#x27;LaurensComputer&#x27;, &#x27;bpython&#x27;: False, &#x27;nogui&#x27;: False, &#x27;pid_filename&#x27;: &#x27;httpserver.pid&#x27;, &#x27;print_errors&#x27;: False, &#x27;extcron&#x27;: False, &#x27;runcron&#x27;: False, &#x27;run_system_tests&#x27;: False, &#x27;test&#x27;: None, &#x27;folder&#x27;: &#x27;C:\\\\Users\\\\cclau_000\\\\Desktop\\\\CMPS121_FinalProject\\\\Web2py Server&#x27;, &#x27;config&#x27;: &#x27;&#x27;, &#x27;minthreads&#x27;: None, &#x27;shell&#x27;: None, &#x27;run&#x27;: &#x27;&#x27;, &#x27;log_filename&#x27;: &#x27;httpserver.log&#x27;, &#x27;profiler_dir&#x27;: None, &#x27;args&#x27;: [&#x27;&#x27;], &#x27;socket_timeout&#x27;: 5, &#x27;ssl_ca_certificate&#x27;: None, &#x27;scheduler&#x27;: None, &#x27;interfaces&#x27;: None, &#x27;ssl_private_key&#x27;: &#x27;&#x27;, &#x27;gae&#x27;: None, &#x27;password&#x27;: &#x27;&lt;ask&gt;&#x27;, &#x27;request_queue_size&#x27;: 5, &#x27;ssl_certificate&#x27;: &#x27;&#x27;, &#x27;cronjob&#x27;: False, &#x27;numthreads&#x27;: None, &#x27;quiet&#x27;: False, &#x27;import_models&#x27;: False, &#x27;timeout&#x27;: 10, &#x27;plain&#x27;: False, &#x27;nobanner&#x27;: False}&gt;</div></td></tr><tr><td style="font-weight:bold;vertical-align:top;">db_sessions</td><td style="vertical-align:top;">:</td><td><div>set([])</div></td></tr><tr><td style="font-weight:bold;vertical-align:top;">debugging</td><td style="vertical-align:top;">:</td><td><div>False</div></td></tr><tr><td style="font-weight:bold;vertical-align:top;">gluon_parent</td><td style="vertical-align:top;">:</td><td><div>C:\\Users\\cclau_000\\Desktop\\CMPS121_FinalProject\\Web2py Server</div></td></tr><tr><td style="font-weight:bold;vertical-align:top;">is_jython</td><td style="vertical-align:top;">:</td><td><div>False</div></td></tr><tr><td style="font-weight:bold;vertical-align:top;">is_pypy</td><td style="vertical-align:top;">:</td><td><div>False</div></td></tr><tr><td style="font-weight:bold;vertical-align:top;">is_source</td><td style="vertical-align:top;">:</td><td><div>True</div></td></tr><tr><td style="font-weight:bold;vertical-align:top;">local_hosts</td><td style="vertical-align:top;">:</td><td><div><table><tr><td><div>fe80::9128:b5bc:8df0:4f04%3</div></td></tr><tr><td><div>2001:0:9d38:6abd:33:12fb:5616:eaac</div></td></tr><tr><td><div>::ffff:127.0.0.1</div></td></tr><tr><td><div>::1</div></td></tr><tr><td><div>fe80::200:5efe:169.233.21.83%4</div></td></tr><tr><td><div>fe80::33:12fb:5616:eaac%2</div></td></tr><tr><td><div>fe80::d9a6:51f4:54a2:3e63%11</div></td></tr><tr><td><div>2620:9b::1992:fbb0</div></td></tr><tr><td><div>25.146.251.176</div></td></tr><tr><td><div>LaurensComputer</div></td></tr><tr><td><div>169.233.21.83</div></td></tr><tr><td><div>127.0.0.1</div></td></tr><tr><td><div>fe80::200:5efe:25.146.251.176%7</div></td></tr></table></div></td></tr><tr><td style="font-weight:bold;vertical-align:top;">web2py_version</td><td style="vertical-align:top;">:</td><td><div>2.10.3-stable+timestamp.2015.04.02.16.28.49</div></td></tr></table></div></td></tr><tr><td style="font-weight:bold;vertical-align:top;">is_https</td><td style="vertical-align:top;">:</td><td><div>False</div></td></tr><tr><td style="font-weight:bold;vertical-align:top;">is_local</td><td style="vertical-align:top;">:</td><td><div>True</div></td></tr><tr><td style="font-weight:bold;vertical-align:top;">is_restful</td><td style="vertical-align:top;">:</td><td><div>False</div></td></tr><tr><td style="font-weight:bold;vertical-align:top;">is_sheduler</td><td style="vertical-align:top;">:</td><td><div>None</div></td></tr><tr><td style="font-weight:bold;vertical-align:top;">is_shell</td><td style="vertical-align:top;">:</td><td><div>None</div></td></tr><tr><td style="font-weight:bold;vertical-align:top;">now</td><td style="vertical-align:top;">:</td><td><div>datetime.datetime(2016, 3, 14, 23, 16, 27, 411000)</div></td></tr><tr><td style="font-weight:bold;vertical-align:top;">raw_args</td><td style="vertical-align:top;">:</td><td><div></div></td></tr><tr><td style="font-weight:bold;vertical-align:top;">raw_extension</td><td style="vertical-align:top;">:</td><td><div>None</div></td></tr><tr><td style="font-weight:bold;vertical-align:top;">url</td><td style="vertical-align:top;">:</td><td><div>/welcome/default/add_user</div></td></tr><tr><td style="font-weight:bold;vertical-align:top;">utcnow</td><td style="vertical-align:top;">:</td><td><div>datetime.datetime(2016, 3, 15, 6, 16, 27, 411000)</div></td></tr><tr><td style="font-weight:bold;vertical-align:top;">uuid</td><td style="vertical-align:top;">:</td><td><div>welcome/127.0.0.1.2016-03-14.23-16-27.c7a0cb7a-2647-45a5-96c6-2c8b707f4ad2</div></td></tr><tr><td style="font-weight:bold;vertical-align:top;">wsgi</td><td style="vertical-align:top;">:</td><td><div>&lt;gluon.main.LazyWSGI object at 0x09079830&gt;</div></td></tr></table></div>'
tRp58
sS'frames'
p59
(lp60
(dp61
S'file'
p62
S'C:\\Users\\cclau_000\\Desktop\\CMPS121_FinalProject\\Web2py Server\\gluon\\restricted.py'
p63
sS'dump'
p64
(dp65
S'environment'
p66
S"{'A': <class 'gluon.html.A'>, 'ANY_OF': <class 'gluon.validators.ANY_OF'>, 'ASSIGNJS': <function ASSIGNJS>, 'AppConfig': <function AppConfig>, 'Auth': <class 'gluon.tools.Auth'>, 'B': <class 'gluon.html.B'>, 'BEAUTIFY': <class 'gluon.html.BEAUTIFY'>, 'BODY': <class 'gluon.html.BODY'>, 'BR': <class 'gluon.html.BR'>, 'BUTTON': <class 'gluon.html.BUTTON'>, ...}"
p67
sS'ccode'
p68
S'<code object <module> at 08DFF650, file "C:\\User...cations\\welcome\\controllers/default.py", line 10>'
p69
ssS'lnum'
p70
I227
sS'lines'
p71
(dp72
I224
S'            ccode = code'
p73
sI225
S'        else:'
p74
sI226
S'            ccode = compile2(code, layer)'
p75
sI227
S'        exec ccode in environment'
p76
sI228
S'    except HTTP:'
p77
sI229
S'        raise'
p78
sI230
S'    except RestrictedError:'
p79
sI231
S'        # do not encapsulate (obfuscate) the original RestrictedError'
p80
sI222
S'    try:'
p81
sI223
S'        if isinstance(code, types.CodeType):'
p82
ssS'call'
p83
S"(code='# -*- coding: utf-8 -*-\\n# this file is released ...e()\\n\\n\\n\\nresponse._vars=response._caller(add_user)\\n', environment={'A': <class 'gluon.html.A'>, 'ANY_OF': <class 'gluon.validators.ANY_OF'>, 'ASSIGNJS': <function ASSIGNJS>, 'AppConfig': <function AppConfig>, 'Auth': <class 'gluon.tools.Auth'>, 'B': <class 'gluon.html.B'>, 'BEAUTIFY': <class 'gluon.html.BEAUTIFY'>, 'BODY': <class 'gluon.html.BODY'>, 'BR': <class 'gluon.html.BR'>, 'BUTTON': <class 'gluon.html.BUTTON'>, ...}, layer=r'C:\\Users\\cclau_000\\Desktop\\CMPS121_FinalProject\\...erver\\applications\\welcome\\controllers/default.py')"
p84
sS'func'
p85
S'restricted'
p86
sa(dp87
g62
S'C:\\Users\\cclau_000\\Desktop\\CMPS121_FinalProject\\Web2py Server\\applications\\welcome\\controllers\\default.py'
p88
sg64
(dp89
sg70
I307
sg71
(dp90
I296
S'def call():'
p91
sI297
S'    """'
p92
sI298
S'    exposes services. for example:'
p93
sI299
S'    http://..../[app]/default/call/jsonrpc'
p94
sI300
S'    decorate with @services.jsonrpc the functions to expose'
p95
sI301
S'    supports xml, json, xmlrpc, jsonrpc, amfrpc, rss, csv'
p96
sI302
S'    """'
p97
sI303
S'    return service()'
p98
sI304
S''
sI305
S''
ssg83
S'()'
p99
sg85
S'<module>'
p100
sa(dp101
g62
S'C:\\Users\\cclau_000\\Desktop\\CMPS121_FinalProject\\Web2py Server\\gluon\\globals.py'
p102
sg64
(dp103
S'self'
p104
S'undefined'
p105
sS'f'
S'<function add_user>'
p106
ssg70
I393
sg71
(dp107
I388
S"        self.flash = ''            # used by the default view layout"
p108
sI389
S'        self.meta = Storage()      # used by web2py_ajax.html'
p109
sI390
S'        self.menu = []             # used by the default view layout'
p110
sI391
S'        self.files = []            # used by web2py_ajax.html'
p111
sI392
S'        self._vars = None'
p112
sI393
S'        self._caller = lambda f: f()'
p113
sI394
S'        self._view_environment = None'
p114
sI395
S'        self._custom_commit = None'
p115
sI396
S'        self._custom_rollback = None'
p116
sI397
S"        self.generic_patterns = ['*']"
p117
ssg83
S'(f=<function add_user>)'
p118
sg85
S'<lambda>'
p119
sa(dp120
g62
S'C:\\Users\\cclau_000\\Desktop\\CMPS121_FinalProject\\Web2py Server\\applications\\welcome\\controllers\\default.py'
p121
sg64
(dp122
S'global base64'
p123
S"<module 'base64' from 'D:\\Python27\\lib\\base64.pyc'>"
p124
sS'global request'
p125
S"<Storage {'_vars': <Storage {'password': 'newPas...roject\\\\Web2py Server\\\\applications\\\\welcome\\\\'}>"
p126
sS'request.vars.password'
p127
S"'newPassword'"
p128
sS'respose'
p129
g105
sS'request.vars'
p130
S"<Storage {'password': 'newPassword', 'email': 'l...edu', 'key': 'GAmaW6d90bvBKDOw60b68e9t10356Dqy'}>"
p131
sS'base64.b64decode'
p132
S'<function b64decode>'
p133
ssg70
I116
sg71
(dp134
I111
S'      rows = db(db.userData.email == request.vars.email).select()'
p135
sI112
S'      if len(rows) == 0:'
p136
sI113
S"         return response.json({'response': 'user not authorized'})"
p137
sI114
S'      for r in rows:'
p138
sI115
S'         r.password = base64.b64encode(request.vars.password)'
p139
sI116
S'         return response.json({base64.b64decode(request.vars.password): request.vars.password})'
p140
sI117
S"      return response.json({'response':'ok'})"
p141
sI118
S'   #except:'
p142
sI119
S"      return response.json({'response':'error'})"
p143
sI120
S''
ssg83
S'()'
p144
sg85
S'add_user'
p145
sa(dp146
g62
S'D:\\Python27\\lib\\base64.py'
p147
sg64
(dp148
S'msg'
p149
S"Error('Incorrect padding',)"
p150
sS'builtinTypeError'
p151
S"<type 'exceptions.TypeError'>"
p152
ssg70
I76
sg71
(dp153
I71
S"        s = _translate(s, {altchars[0]: '+', altchars[1]: '/'})"
p154
sI72
S'    try:'
p155
sI73
S'        return binascii.a2b_base64(s)'
p156
sI74
S'    except binascii.Error, msg:'
p157
sI75
S'        # Transform this exception for consistency'
p158
sI76
S'        raise TypeError(msg)'
p159
sI77
S''
sI78
S''
sI79
S'def standard_b64encode(s):'
p160
sI80
S'    """Encode a string using the standard Base64 alphabet.'
p161
ssg83
S"(s='newPassword', altchars=None)"
p162
sg85
S'b64decode'
p163
sasS'pyver'
p164
S'Python 2.7.9: D:\\Python27\\python.exe (prefix: D:\\Python27)'
p165
sS'session'
p166
g57
(S's\x1a\x00\x00\x00<div><table></table></div>'
tRp167
sS'etype'
p168
S"<type 'exceptions.TypeError'>"
p169
sS'date'
p170
S'Mon Mar 14 23:16:27 2016'
p171
sS'response'
p172
g57
(S's\xe1?\x00\x00<div><table><tr><td style="font-weight:bold;vertical-align:top;">body</td><td style="vertical-align:top;">:</td><td><div>&lt;cStringIO.StringO object at 0x090780C0&gt;</div></td></tr><tr><td style="font-weight:bold;vertical-align:top;">cookies</td><td style="vertical-align:top;">:</td><td><div><table><tr><td style="font-weight:bold;vertical-align:top;">session_id_welcome</td><td style="vertical-align:top;">:</td><td><div>127.0.0.1-440f3e9b-2c2a-409b-b814-4f671a85f8d1<table><tr><td style="font-weight:bold;vertical-align:top;">comment</td><td style="vertical-align:top;">:</td><td><div></div></td></tr><tr><td style="font-weight:bold;vertical-align:top;">domain</td><td style="vertical-align:top;">:</td><td><div></div></td></tr><tr><td style="font-weight:bold;vertical-align:top;">expires</td><td style="vertical-align:top;">:</td><td><div></div></td></tr><tr><td style="font-weight:bold;vertical-align:top;">httponly</td><td style="vertical-align:top;">:</td><td><div></div></td></tr><tr><td style="font-weight:bold;vertical-align:top;">max-age</td><td style="vertical-align:top;">:</td><td><div></div></td></tr><tr><td style="font-weight:bold;vertical-align:top;">path</td><td style="vertical-align:top;">:</td><td><div>/</div></td></tr><tr><td style="font-weight:bold;vertical-align:top;">secure</td><td style="vertical-align:top;">:</td><td><div></div></td></tr><tr><td style="font-weight:bold;vertical-align:top;">version</td><td style="vertical-align:top;">:</td><td><div></div></td></tr></table></div></td></tr></table></div></td></tr><tr><td style="font-weight:bold;vertical-align:top;">delimiters</td><td style="vertical-align:top;">:</td><td><div><table><tr><td><div>{{</div></td></tr><tr><td><div>}}</div></td></tr></table></div></td></tr><tr><td style="font-weight:bold;vertical-align:top;">files</td><td style="vertical-align:top;">:</td><td><div><table></table></div></td></tr><tr><td style="font-weight:bold;vertical-align:top;">flash</td><td style="vertical-align:top;">:</td><td><div></div></td></tr><tr><td style="font-weight:bold;vertical-align:top;">form_label_separator</td><td style="vertical-align:top;">:</td><td><div></div></td></tr><tr><td style="font-weight:bold;vertical-align:top;">formstyle</td><td style="vertical-align:top;">:</td><td><div>bootstrap3_inline</div></td></tr><tr><td style="font-weight:bold;vertical-align:top;">generic_patterns</td><td style="vertical-align:top;">:</td><td><div><table><tr><td><div>*</div></td></tr></table></div></td></tr><tr><td style="font-weight:bold;vertical-align:top;">google_analytics_id</td><td style="vertical-align:top;">:</td><td><div>None</div></td></tr><tr><td style="font-weight:bold;vertical-align:top;">headers</td><td style="vertical-align:top;">:</td><td><div><table><tr><td style="font-weight:bold;vertical-align:top;">X-Powered-By</td><td style="vertical-align:top;">:</td><td><div>web2py</div></td></tr></table></div></td></tr><tr><td style="font-weight:bold;vertical-align:top;">logo</td><td style="vertical-align:top;">:</td><td><div><a class="navbar-brand" href="http://www.web2py.com/" id="web2py-logo"><b>web<span>2</span>py</b>&trade;&nbsp;</a></div></td></tr><tr><td style="font-weight:bold;vertical-align:top;">menu</td><td style="vertical-align:top;">:</td><td><div><table><tr><td><div><table><tr><td><div>Home</div></td></tr><tr><td><div>False</div></td></tr><tr><td><div>/welcome/default/index</div></td></tr><tr><td><div><table></table></div></td></tr></table></div></td></tr><tr><td><div><table><tr><td><div>My Sites</div></td></tr><tr><td><div>False</div></td></tr><tr><td><div>/admin/default/site</div></td></tr></table></div></td></tr><tr><td><div><table><tr><td><div>This App</div></td></tr><tr><td><div>False</div></td></tr><tr><td><div>#</div></td></tr><tr><td><div><table><tr><td><div><table><tr><td><div>Design</div></td></tr><tr><td><div>False</div></td></tr><tr><td><div>/admin/default/design/welcome</div></td></tr></table></div></td></tr><tr><td><div><li class="divider"></li></div></td></tr><tr><td><div><table><tr><td><div>Controller</div></td></tr><tr><td><div>False</div></td></tr><tr><td><div>/admin/default/edit/welcome/controllers/default.py</div></td></tr></table></div></td></tr><tr><td><div><table><tr><td><div>View</div></td></tr><tr><td><div>False</div></td></tr><tr><td><div>/admin/default/edit/welcome/views/default/add_user.html</div></td></tr></table></div></td></tr><tr><td><div><table><tr><td><div>DB Model</div></td></tr><tr><td><div>False</div></td></tr><tr><td><div>/admin/default/edit/welcome/models/db.py</div></td></tr></table></div></td></tr><tr><td><div><table><tr><td><div>Menu Model</div></td></tr><tr><td><div>False</div></td></tr><tr><td><div>/admin/default/edit/welcome/models/menu.py</div></td></tr></table></div></td></tr><tr><td><div><table><tr><td><div>Config.ini</div></td></tr><tr><td><div>False</div></td></tr><tr><td><div>/admin/default/edit/welcome/private/appconfig.ini</div></td></tr></table></div></td></tr><tr><td><div><table><tr><td><div>Layout</div></td></tr><tr><td><div>False</div></td></tr><tr><td><div>/admin/default/edit/welcome/views/layout.html</div></td></tr></table></div></td></tr><tr><td><div><table><tr><td><div>Stylesheet</div></td></tr><tr><td><div>False</div></td></tr><tr><td><div>/admin/default/edit/welcome/static/css/web2py-bootstrap3.css</div></td></tr></table></div></td></tr><tr><td><div><table><tr><td><div>Database</div></td></tr><tr><td><div>False</div></td></tr><tr><td><div>/welcome/appadmin/index</div></td></tr></table></div></td></tr><tr><td><div><table><tr><td><div>Errors</div></td></tr><tr><td><div>False</div></td></tr><tr><td><div>/admin/default/errors/welcome</div></td></tr></table></div></td></tr><tr><td><div><table><tr><td><div>About</div></td></tr><tr><td><div>False</div></td></tr><tr><td><div>/admin/default/about/welcome</div></td></tr></table></div></td></tr></table></div></td></tr></table></div></td></tr><tr><td><div><table><tr><td><div>web2py.com</div></td></tr><tr><td><div>False</div></td></tr><tr><td><div>#</div></td></tr><tr><td><div><table><tr><td><div><table><tr><td><div>Download</div></td></tr><tr><td><div>False</div></td></tr><tr><td><div>http://www.web2py.com/examples/default/download</div></td></tr></table></div></td></tr><tr><td><div><table><tr><td><div>Support</div></td></tr><tr><td><div>False</div></td></tr><tr><td><div>http://www.web2py.com/examples/default/support</div></td></tr></table></div></td></tr><tr><td><div><table><tr><td><div>Demo</div></td></tr><tr><td><div>False</div></td></tr><tr><td><div>http://web2py.com/demo_admin</div></td></tr></table></div></td></tr><tr><td><div><table><tr><td><div>Quick Examples</div></td></tr><tr><td><div>False</div></td></tr><tr><td><div>http://web2py.com/examples/default/examples</div></td></tr></table></div></td></tr><tr><td><div><table><tr><td><div>FAQ</div></td></tr><tr><td><div>False</div></td></tr><tr><td><div>http://web2py.com/AlterEgo</div></td></tr></table></div></td></tr><tr><td><div><table><tr><td><div>Videos</div></td></tr><tr><td><div>False</div></td></tr><tr><td><div>http://www.web2py.com/examples/default/videos/</div></td></tr></table></div></td></tr><tr><td><div><table><tr><td><div>Free Applications</div></td></tr><tr><td><div>False</div></td></tr><tr><td><div>http://web2py.com/appliances</div></td></tr></table></div></td></tr><tr><td><div><table><tr><td><div>Plugins</div></td></tr><tr><td><div>False</div></td></tr><tr><td><div>http://web2py.com/plugins</div></td></tr></table></div></td></tr><tr><td><div><table><tr><td><div>Recipes</div></td></tr><tr><td><div>False</div></td></tr><tr><td><div>http://web2pyslices.com/</div></td></tr></table></div></td></tr></table></div></td></tr></table></div></td></tr><tr><td><div><table><tr><td><div>Documentation</div></td></tr><tr><td><div>False</div></td></tr><tr><td><div>#</div></td></tr><tr><td><div><table><tr><td><div><table><tr><td><div>Online book</div></td></tr><tr><td><div>False</div></td></tr><tr><td><div>http://www.web2py.com/book</div></td></tr></table></div></td></tr><tr><td><div><li class="divider"></li></div></td></tr><tr><td><div><table><tr><td><div>Preface</div></td></tr><tr><td><div>False</div></td></tr><tr><td><div>http://www.web2py.com/book/default/chapter/00</div></td></tr></table></div></td></tr><tr><td><div><table><tr><td><div>Introduction</div></td></tr><tr><td><div>False</div></td></tr><tr><td><div>http://www.web2py.com/book/default/chapter/01</div></td></tr></table></div></td></tr><tr><td><div><table><tr><td><div>Python</div></td></tr><tr><td><div>False</div></td></tr><tr><td><div>http://www.web2py.com/book/default/chapter/02</div></td></tr></table></div></td></tr><tr><td><div><table><tr><td><div>Overview</div></td></tr><tr><td><div>False</div></td></tr><tr><td><div>http://www.web2py.com/book/default/chapter/03</div></td></tr></table></div></td></tr><tr><td><div><table><tr><td><div>The Core</div></td></tr><tr><td><div>False</div></td></tr><tr><td><div>http://www.web2py.com/book/default/chapter/04</div></td></tr></table></div></td></tr><tr><td><div><table><tr><td><div>The Views</div></td></tr><tr><td><div>False</div></td></tr><tr><td><div>http://www.web2py.com/book/default/chapter/05</div></td></tr></table></div></td></tr><tr><td><div><table><tr><td><div>Database</div></td></tr><tr><td><div>False</div></td></tr><tr><td><div>http://www.web2py.com/book/default/chapter/06</div></td></tr></table></div></td></tr><tr><td><div><table><tr><td><div>Forms and Validators</div></td></tr><tr><td><div>False</div></td></tr><tr><td><div>http://www.web2py.com/book/default/chapter/07</div></td></tr></table></div></td></tr><tr><td><div><table><tr><td><div>Email and SMS</div></td></tr><tr><td><div>False</div></td></tr><tr><td><div>http://www.web2py.com/book/default/chapter/08</div></td></tr></table></div></td></tr><tr><td><div><table><tr><td><div>Access Control</div></td></tr><tr><td><div>False</div></td></tr><tr><td><div>http://www.web2py.com/book/default/chapter/09</div></td></tr></table></div></td></tr><tr><td><div><table><tr><td><div>Services</div></td></tr><tr><td><div>False</div></td></tr><tr><td><div>http://www.web2py.com/book/default/chapter/10</div></td></tr></table></div></td></tr><tr><td><div><table><tr><td><div>Ajax Recipes</div></td></tr><tr><td><div>False</div></td></tr><tr><td><div>http://www.web2py.com/book/default/chapter/11</div></td></tr></table></div></td></tr><tr><td><div><table><tr><td><div>Components and Plugins</div></td></tr><tr><td><div>False</div></td></tr><tr><td><div>http://www.web2py.com/book/default/chapter/12</div></td></tr></table></div></td></tr><tr><td><div><table><tr><td><div>Deployment Recipes</div></td></tr><tr><td><div>False</div></td></tr><tr><td><div>http://www.web2py.com/book/default/chapter/13</div></td></tr></table></div></td></tr><tr><td><div><table><tr><td><div>Other Recipes</div></td></tr><tr><td><div>False</div></td></tr><tr><td><div>http://www.web2py.com/book/default/chapter/14</div></td></tr></table></div></td></tr><tr><td><div><table><tr><td><div>Helping web2py</div></td></tr><tr><td><div>False</div></td></tr><tr><td><div>http://www.web2py.com/book/default/chapter/15</div></td></tr></table></div></td></tr><tr><td><div><table><tr><td><div>Buy web2py\'s book</div></td></tr><tr><td><div>False</div></td></tr><tr><td><div>http://stores.lulu.com/web2py</div></td></tr></table></div></td></tr></table></div></td></tr></table></div></td></tr><tr><td><div><table><tr><td><div>Community</div></td></tr><tr><td><div>False</div></td></tr><tr><td><div>None</div></td></tr><tr><td><div><table><tr><td><div><table><tr><td><div>Groups</div></td></tr><tr><td><div>False</div></td></tr><tr><td><div>http://www.web2py.com/examples/default/usergroups</div></td></tr></table></div></td></tr><tr><td><div><table><tr><td><div>Twitter</div></td></tr><tr><td><div>False</div></td></tr><tr><td><div>http://twitter.com/web2py</div></td></tr></table></div></td></tr><tr><td><div><table><tr><td><div>Live Chat</div></td></tr><tr><td><div>False</div></td></tr><tr><td><div>http://webchat.freenode.net/?channels=web2py</div></td></tr></table></div></td></tr></table></div></td></tr></table></div></td></tr></table></div></td></tr><tr><td style="font-weight:bold;vertical-align:top;">meta</td><td style="vertical-align:top;">:</td><td><div><table><tr><td style="font-weight:bold;vertical-align:top;">author</td><td style="vertical-align:top;">:</td><td><div>Your Name &lt;you@example.com&gt;</div></td></tr><tr><td style="font-weight:bold;vertical-align:top;">description</td><td style="vertical-align:top;">:</td><td><div>a cool new app</div></td></tr><tr><td style="font-weight:bold;vertical-align:top;">generator</td><td style="vertical-align:top;">:</td><td><div>Web2py Web Framework</div></td></tr><tr><td style="font-weight:bold;vertical-align:top;">keywords</td><td style="vertical-align:top;">:</td><td><div>web2py, python, framework</div></td></tr></table></div></td></tr><tr><td style="font-weight:bold;vertical-align:top;">models_to_run</td><td style="vertical-align:top;">:</td><td><div><table><tr><td><div>^\\w+\\.py$</div></td></tr><tr><td><div>^default/\\w+\\.py$</div></td></tr><tr><td><div>^default/add_user/\\w+\\.py$</div></td></tr></table></div></td></tr><tr><td style="font-weight:bold;vertical-align:top;">postprocessing</td><td style="vertical-align:top;">:</td><td><div><table></table></div></td></tr><tr><td style="font-weight:bold;vertical-align:top;">session_client</td><td style="vertical-align:top;">:</td><td><div>127.0.0.1</div></td></tr><tr><td style="font-weight:bold;vertical-align:top;">session_cookie_compression_level</td><td style="vertical-align:top;">:</td><td><div>None</div></td></tr><tr><td style="font-weight:bold;vertical-align:top;">session_cookie_expires</td><td style="vertical-align:top;">:</td><td><div>None</div></td></tr><tr><td style="font-weight:bold;vertical-align:top;">session_cookie_key</td><td style="vertical-align:top;">:</td><td><div>None</div></td></tr><tr><td style="font-weight:bold;vertical-align:top;">session_data_name</td><td style="vertical-align:top;">:</td><td><div>session_data_welcome</div></td></tr><tr><td style="font-weight:bold;vertical-align:top;">session_file</td><td style="vertical-align:top;">:</td><td><div>&lt;open file &#x27;C:\\\\Users\\\\cclau_000\\\\Desktop\\\\CMPS121_FinalProject\\\\Web2py Server\\\\applications\\\\welcome\\\\sessions\\\\172\\\\1c5\\\\127.0.0.1-440f3e9b-2c2a-409b-b814-4f671a85f8d1&#x27;, mode &#x27;rb+&#x27; at 0x08DEB5F8&gt;</div></td></tr><tr><td style="font-weight:bold;vertical-align:top;">session_filename</td><td style="vertical-align:top;">:</td><td><div>C:\\Users\\cclau_000\\Desktop\\CMPS121_FinalProject\\Web2py Server\\applications\\welcome\\sessions\\127.0.0.1-440f3e9b-2c2a-409b-b814-4f671a85f8d1</div></td></tr><tr><td style="font-weight:bold;vertical-align:top;">session_hash</td><td style="vertical-align:top;">:</td><td><div>e3753a46c20cb2a3a5c8ed08441ebd73</div></td></tr><tr><td style="font-weight:bold;vertical-align:top;">session_id</td><td style="vertical-align:top;">:</td><td><div>127.0.0.1-440f3e9b-2c2a-409b-b814-4f671a85f8d1</div></td></tr><tr><td style="font-weight:bold;vertical-align:top;">session_id_name</td><td style="vertical-align:top;">:</td><td><div>session_id_welcome</div></td></tr><tr><td style="font-weight:bold;vertical-align:top;">session_locked</td><td style="vertical-align:top;">:</td><td><div>True</div></td></tr><tr><td style="font-weight:bold;vertical-align:top;">session_masterapp</td><td style="vertical-align:top;">:</td><td><div>welcome</div></td></tr><tr><td style="font-weight:bold;vertical-align:top;">session_new</td><td style="vertical-align:top;">:</td><td><div>False</div></td></tr><tr><td style="font-weight:bold;vertical-align:top;">session_storage_type</td><td style="vertical-align:top;">:</td><td><div>file</div></td></tr><tr><td style="font-weight:bold;vertical-align:top;">status</td><td style="vertical-align:top;">:</td><td><div>200</div></td></tr><tr><td style="font-weight:bold;vertical-align:top;">subtitle</td><td style="vertical-align:top;">:</td><td><div></div></td></tr><tr><td style="font-weight:bold;vertical-align:top;">title</td><td style="vertical-align:top;">:</td><td><div>Welcome</div></td></tr><tr><td style="font-weight:bold;vertical-align:top;">view</td><td style="vertical-align:top;">:</td><td><div>default/add_user.html</div></td></tr></table></div>'
tRp173
sS'locals'
p174
(dp175
S'msg'
p176
S"Error('Incorrect padding',)"
p177
sS'altchars'
p178
S'None'
p179
sS's'
S"'newPassword'"
p180
sssS'traceback'
p181
S'Traceback (most recent call last):\n  File "C:\\Users\\cclau_000\\Desktop\\CMPS121_FinalProject\\Web2py Server\\gluon\\restricted.py", line 227, in restricted\n    exec ccode in environment\n  File "C:\\Users\\cclau_000\\Desktop\\CMPS121_FinalProject\\Web2py Server\\applications\\welcome\\controllers/default.py", line 307, in <module>\n  File "C:\\Users\\cclau_000\\Desktop\\CMPS121_FinalProject\\Web2py Server\\gluon\\globals.py", line 393, in <lambda>\n    self._caller = lambda f: f()\n  File "C:\\Users\\cclau_000\\Desktop\\CMPS121_FinalProject\\Web2py Server\\applications\\welcome\\controllers/default.py", line 116, in add_user\n    return response.json({base64.b64decode(request.vars.password): request.vars.password})\n  File "D:\\Python27\\lib\\base64.py", line 76, in b64decode\n    raise TypeError(msg)\nTypeError: Incorrect padding\n'
p182
s.